target datalayout = "e-m:e-p270:32:32-p271:32:32-p272:64:64-i64:64-i128:128-f80:128-n8:16:32:64-S128"
target triple = "x86_64-pc-linux-gnu"

%"class.JavaAssertions::OptionList" = type <{ ptr, ptr, i8, [7 x i8] }>

@_ZN14JavaAssertions12_userDefaultE = hidden global i8 0, align 1
@_ZN14JavaAssertions11_sysDefaultE = hidden global i8 0, align 1
@_ZN14JavaAssertions8_classesE = hidden global ptr null, align 8
@_ZN14JavaAssertions9_packagesE = hidden global ptr null, align 8
@.str.4 = private unnamed_addr constant [6 x i8] c"class\00", align 1
@.str.5 = private unnamed_addr constant [8 x i8] c"package\00", align 1
@.str.6 = private unnamed_addr constant [7 x i8] c"system\00", align 1
@.str.7 = private unnamed_addr constant [5 x i8] c"user\00", align 1
@.str.8 = private unnamed_addr constant [8 x i8] c"default\00", align 1

; Function Attrs: mustprogress nounwind uwtable
define linkonce_odr hidden noundef ptr @_ZNK14JavaAssertions10OptionList4nextEv(ptr noundef nonnull align 8 dereferenceable(17) %0) #1 comdat align 2 {
  %2 = alloca ptr, align 8
  store ptr %0, ptr %2, align 8
  %3 = load ptr, ptr %2, align 8
  %4 = getelementptr inbounds %"class.JavaAssertions::OptionList", ptr %3, i32 0, i32 1
  %5 = load ptr, ptr %4, align 8
  ret ptr %5
}

; Function Attrs: mustprogress nounwind uwtable
define linkonce_odr hidden noundef zeroext i1 @_ZN14JavaAssertions16userClassDefaultEv() #1 comdat align 2 {
  %1 = load i8, ptr @_ZN14JavaAssertions12_userDefaultE, align 1
  %2 = trunc i8 %1 to i1
  ret i1 %2
}

; Function Attrs: mustprogress nounwind uwtable
define linkonce_odr hidden noundef zeroext i1 @_ZN14JavaAssertions18systemClassDefaultEv() #1 comdat align 2 {
  %1 = load i8, ptr @_ZN14JavaAssertions11_sysDefaultE, align 1
  %2 = trunc i8 %1 to i1
  ret i1 %2
}

; Function Attrs: mustprogress nounwind uwtable
define hidden noundef ptr @_ZN14JavaAssertions13match_packageEPKc(ptr noundef %0) #1 align 2 {
  %2 = alloca ptr, align 8
  %3 = alloca ptr, align 8
  %4 = alloca i64, align 8
  %5 = alloca ptr, align 8
  store ptr %0, ptr %3, align 8
  %6 = load ptr, ptr @_ZN14JavaAssertions9_packagesE, align 8
  %7 = icmp eq ptr %6, null
  br i1 %7, label %8, label %9

8:                                                ; preds = %1
  store ptr null, ptr %2, align 8
  br label %75

9:                                                ; preds = %1
  %10 = load ptr, ptr %3, align 8
  %11 = call i64 @strlen(ptr noundef %10) #8
  store i64 %11, ptr %4, align 8
  br label %12

12:                                               ; preds = %25, %9
  %13 = load i64, ptr %4, align 8
  %14 = icmp ugt i64 %13, 0
  br i1 %14, label %15, label %22

15:                                               ; preds = %12
  %16 = load ptr, ptr %3, align 8
  %17 = load i64, ptr %4, align 8
  %18 = getelementptr inbounds i8, ptr %16, i64 %17
  %19 = load i8, ptr %18, align 1
  %20 = sext i8 %19 to i32
  %21 = icmp ne i32 %20, 47
  br label %22

22:                                               ; preds = %15, %12
  %23 = phi i1 [ false, %12 ], [ %21, %15 ]
  br i1 %23, label %24, label %28

24:                                               ; preds = %22
  br label %25

25:                                               ; preds = %24
  %26 = load i64, ptr %4, align 8
  %27 = add i64 %26, -1
  store i64 %27, ptr %4, align 8
  br label %12, !llvm.loop !10

28:                                               ; preds = %22
  br label %29

29:                                               ; preds = %71, %28
  %30 = load ptr, ptr @_ZN14JavaAssertions9_packagesE, align 8
  store ptr %30, ptr %5, align 8
  br label %31

31:                                               ; preds = %52, %29
  %32 = load ptr, ptr %5, align 8
  %33 = icmp ne ptr %32, null
  br i1 %33, label %34, label %55

34:                                               ; preds = %31
  %35 = load ptr, ptr %5, align 8
  %36 = call noundef ptr @_ZNK14JavaAssertions10OptionList4nameEv(ptr noundef nonnull align 8 dereferenceable(17) %35)
  %37 = load ptr, ptr %3, align 8
  %38 = load i64, ptr %4, align 8
  %39 = call i32 @strncmp(ptr noundef %36, ptr noundef %37, i64 noundef %38) #8
  %40 = icmp eq i32 %39, 0
  br i1 %40, label %41, label %51

41:                                               ; preds = %34
  %42 = load ptr, ptr %5, align 8
  %43 = call noundef ptr @_ZNK14JavaAssertions10OptionList4nameEv(ptr noundef nonnull align 8 dereferenceable(17) %42)
  %44 = load i64, ptr %4, align 8
  %45 = getelementptr inbounds i8, ptr %43, i64 %44
  %46 = load i8, ptr %45, align 1
  %47 = sext i8 %46 to i32
  %48 = icmp eq i32 %47, 0
  br i1 %48, label %49, label %51

49:                                               ; preds = %41
  %50 = load ptr, ptr %5, align 8
  store ptr %50, ptr %2, align 8
  br label %75

51:                                               ; preds = %41, %34
  br label %52

52:                                               ; preds = %51
  %53 = load ptr, ptr %5, align 8
  %54 = call noundef ptr @_ZNK14JavaAssertions10OptionList4nextEv(ptr noundef nonnull align 8 dereferenceable(17) %53)
  store ptr %54, ptr %5, align 8
  br label %31, !llvm.loop !11

55:                                               ; preds = %31
  br label %56

56:                                               ; preds = %69, %55
  %57 = load i64, ptr %4, align 8
  %58 = icmp ugt i64 %57, 0
  br i1 %58, label %59, label %67

59:                                               ; preds = %56
  %60 = load ptr, ptr %3, align 8
  %61 = load i64, ptr %4, align 8
  %62 = add i64 %61, -1
  store i64 %62, ptr %4, align 8
  %63 = getelementptr inbounds i8, ptr %60, i64 %62
  %64 = load i8, ptr %63, align 1
  %65 = sext i8 %64 to i32
  %66 = icmp ne i32 %65, 47
  br label %67

67:                                               ; preds = %59, %56
  %68 = phi i1 [ false, %56 ], [ %66, %59 ]
  br i1 %68, label %69, label %70

69:                                               ; preds = %67
  br label %56, !llvm.loop !12

70:                                               ; preds = %67
  br label %71

71:                                               ; preds = %70
  %72 = load i64, ptr %4, align 8
  %73 = icmp ugt i64 %72, 0
  br i1 %73, label %29, label %74, !llvm.loop !13

74:                                               ; preds = %71
  store ptr null, ptr %2, align 8
  br label %75

75:                                               ; preds = %74, %49, %8
  %76 = load ptr, ptr %2, align 8
  ret ptr %76
}

; Function Attrs: mustprogress nounwind uwtable
define linkonce_odr hidden void @_ZN14JavaAssertions5traceEPKcS1_S1_b(ptr noundef %0, ptr noundef %1, ptr noundef %2, i1 noundef zeroext %3) #1 comdat align 2 {
  %5 = alloca ptr, align 8
  %6 = alloca ptr, align 8
  %7 = alloca ptr, align 8
  %8 = alloca i8, align 1
  store ptr %0, ptr %5, align 8
  store ptr %1, ptr %6, align 8
  store ptr %2, ptr %7, align 8
  %9 = zext i1 %3 to i8
  store i8 %9, ptr %8, align 1
  ret void
}

; Function Attrs: mustprogress nounwind uwtable
define linkonce_odr hidden noundef zeroext i1 @_ZNK14JavaAssertions10OptionList7enabledEv(ptr noundef nonnull align 8 dereferenceable(17) %0) #1 comdat align 2 {
  %2 = alloca ptr, align 8
  store ptr %0, ptr %2, align 8
  %3 = load ptr, ptr %2, align 8
  %4 = getelementptr inbounds %"class.JavaAssertions::OptionList", ptr %3, i32 0, i32 2
  %5 = load i8, ptr %4, align 8
  %6 = trunc i8 %5 to i1
  ret i1 %6
}

; Function Attrs: mustprogress nounwind uwtable
define linkonce_odr hidden noundef ptr @_ZNK14JavaAssertions10OptionList4nameEv(ptr noundef nonnull align 8 dereferenceable(17) %0) #1 comdat align 2 {
  %2 = alloca ptr, align 8
  store ptr %0, ptr %2, align 8
  %3 = load ptr, ptr %2, align 8
  %4 = getelementptr inbounds %"class.JavaAssertions::OptionList", ptr %3, i32 0, i32 0
  %5 = load ptr, ptr %4, align 8
  ret ptr %5
}

; Function Attrs: mustprogress nounwind uwtable
define linkonce_odr hidden noundef ptr @_ZN14JavaAssertions11match_classEPKc(ptr noundef %0) #1 comdat align 2 {
  %2 = alloca ptr, align 8
  %3 = alloca ptr, align 8
  %4 = alloca ptr, align 8
  store ptr %0, ptr %3, align 8
  %5 = load ptr, ptr @_ZN14JavaAssertions8_classesE, align 8
  store ptr %5, ptr %4, align 8
  br label %6

6:                                                ; preds = %18, %1
  %7 = load ptr, ptr %4, align 8
  %8 = icmp ne ptr %7, null
  br i1 %8, label %9, label %21

9:                                                ; preds = %6
  %10 = load ptr, ptr %4, align 8
  %11 = call noundef ptr @_ZNK14JavaAssertions10OptionList4nameEv(ptr noundef nonnull align 8 dereferenceable(17) %10)
  %12 = load ptr, ptr %3, align 8
  %13 = call i32 @strcmp(ptr noundef %11, ptr noundef %12) #8
  %14 = icmp eq i32 %13, 0
  br i1 %14, label %15, label %17

15:                                               ; preds = %9
  %16 = load ptr, ptr %4, align 8
  store ptr %16, ptr %2, align 8
  br label %22

17:                                               ; preds = %9
  br label %18

18:                                               ; preds = %17
  %19 = load ptr, ptr %4, align 8
  %20 = call noundef ptr @_ZNK14JavaAssertions10OptionList4nextEv(ptr noundef nonnull align 8 dereferenceable(17) %19)
  store ptr %20, ptr %4, align 8
  br label %6, !llvm.loop !14

21:                                               ; preds = %6
  store ptr null, ptr %2, align 8
  br label %22

22:                                               ; preds = %21, %15
  %23 = load ptr, ptr %2, align 8
  ret ptr %23
}

; Function Attrs: mustprogress nounwind uwtable
define hidden noundef zeroext i1 @_ZN14JavaAssertions7enabledEPKcb(ptr noundef %0, i1 noundef zeroext %1) #1 align 2 {
  %3 = alloca i1, align 1
  %4 = alloca ptr, align 8
  %5 = alloca i8, align 1
  %6 = alloca ptr, align 8
  %7 = alloca i8, align 1
  store ptr %0, ptr %4, align 8
  %8 = zext i1 %1 to i8
  store i8 %8, ptr %5, align 1
  %9 = load ptr, ptr %4, align 8
  %10 = call noundef ptr @_ZN14JavaAssertions11match_classEPKc(ptr noundef %9)
  store ptr %10, ptr %6, align 8
  %11 = icmp ne ptr %10, null
  br i1 %11, label %12, label %20

12:                                               ; preds = %2
  %13 = load ptr, ptr %4, align 8
  %14 = load ptr, ptr %6, align 8
  %15 = call noundef ptr @_ZNK14JavaAssertions10OptionList4nameEv(ptr noundef nonnull align 8 dereferenceable(17) %14)
  %16 = load ptr, ptr %6, align 8
  %17 = call noundef zeroext i1 @_ZNK14JavaAssertions10OptionList7enabledEv(ptr noundef nonnull align 8 dereferenceable(17) %16)
  call void @_ZN14JavaAssertions5traceEPKcS1_S1_b(ptr noundef %13, ptr noundef @.str.4, ptr noundef %15, i1 noundef zeroext %17)
  %18 = load ptr, ptr %6, align 8
  %19 = call noundef zeroext i1 @_ZNK14JavaAssertions10OptionList7enabledEv(ptr noundef nonnull align 8 dereferenceable(17) %18)
  store i1 %19, ptr %3, align 1
  br label %50

20:                                               ; preds = %2
  %21 = load ptr, ptr %4, align 8
  %22 = call noundef ptr @_ZN14JavaAssertions13match_packageEPKc(ptr noundef %21)
  store ptr %22, ptr %6, align 8
  %23 = icmp ne ptr %22, null
  br i1 %23, label %24, label %32

24:                                               ; preds = %20
  %25 = load ptr, ptr %4, align 8
  %26 = load ptr, ptr %6, align 8
  %27 = call noundef ptr @_ZNK14JavaAssertions10OptionList4nameEv(ptr noundef nonnull align 8 dereferenceable(17) %26)
  %28 = load ptr, ptr %6, align 8
  %29 = call noundef zeroext i1 @_ZNK14JavaAssertions10OptionList7enabledEv(ptr noundef nonnull align 8 dereferenceable(17) %28)
  call void @_ZN14JavaAssertions5traceEPKcS1_S1_b(ptr noundef %25, ptr noundef @.str.5, ptr noundef %27, i1 noundef zeroext %29)
  %30 = load ptr, ptr %6, align 8
  %31 = call noundef zeroext i1 @_ZNK14JavaAssertions10OptionList7enabledEv(ptr noundef nonnull align 8 dereferenceable(17) %30)
  store i1 %31, ptr %3, align 1
  br label %50

32:                                               ; preds = %20
  %33 = load i8, ptr %5, align 1
  %34 = trunc i8 %33 to i1
  br i1 %34, label %35, label %37

35:                                               ; preds = %32
  %36 = call noundef zeroext i1 @_ZN14JavaAssertions18systemClassDefaultEv()
  br label %39

37:                                               ; preds = %32
  %38 = call noundef zeroext i1 @_ZN14JavaAssertions16userClassDefaultEv()
  br label %39

39:                                               ; preds = %37, %35
  %40 = phi i1 [ %36, %35 ], [ %38, %37 ]
  %41 = zext i1 %40 to i8
  store i8 %41, ptr %7, align 1
  %42 = load ptr, ptr %4, align 8
  %43 = load i8, ptr %5, align 1
  %44 = trunc i8 %43 to i1
  %45 = select i1 %44, ptr @.str.6, ptr @.str.7
  %46 = load i8, ptr %7, align 1
  %47 = trunc i8 %46 to i1
  call void @_ZN14JavaAssertions5traceEPKcS1_S1_b(ptr noundef %42, ptr noundef %45, ptr noundef @.str.8, i1 noundef zeroext %47)
  %48 = load i8, ptr %7, align 1
  %49 = trunc i8 %48 to i1
  store i1 %49, ptr %3, align 1
  br label %50

50:                                               ; preds = %39, %24, %12
  %51 = load i1, ptr %3, align 1
  ret i1 %51
}