; Function Attrs: mustprogress nofree nounwind willreturn memory(read, inaccessiblemem: none) uwtable
define hidden noundef zeroext i1 @_ZN14JavaAssertions7enabledEPKcb(ptr nocapture noundef readonly %0, i1 noundef zeroext %1) local_unnamed_addr #5 align 2 {
  %.07.i = load ptr, ptr @_ZN14JavaAssertions8_classesE, align 8
  %.not8.i = icmp eq ptr %.07.i, null
  br i1 %.not8.i, label %.loopexit24, label %.lr.ph.i

.lr.ph.i:                                         ; preds = %2, %6
  %.09.i = phi ptr [ %.0.i, %6 ], [ %.07.i, %2 ]
  %3 = load ptr, ptr %.09.i, align 8
  %4 = tail call i32 @strcmp(ptr noundef nonnull dereferenceable(1) %3, ptr noundef nonnull dereferenceable(1) %0) #9
  %5 = icmp eq i32 %4, 0
  br i1 %5, label %_ZN14JavaAssertions11match_classEPKc.exit, label %6

6:                                                ; preds = %.lr.ph.i
  %7 = getelementptr inbounds i8, ptr %.09.i, i64 8
  %.0.i = load ptr, ptr %7, align 8
  %.not.i = icmp eq ptr %.0.i, null
  br i1 %.not.i, label %.loopexit24, label %.lr.ph.i, !llvm.loop !14

_ZN14JavaAssertions11match_classEPKc.exit:        ; preds = %.lr.ph.i
  %8 = getelementptr inbounds i8, ptr %.09.i, i64 16
  br label %35

.loopexit24:                                      ; preds = %6, %2
  %9 = load ptr, ptr @_ZN14JavaAssertions9_packagesE, align 8
  %10 = icmp eq ptr %9, null
  br i1 %10, label %.loopexit, label %11

11:                                               ; preds = %.loopexit24
  %12 = tail call i64 @strlen(ptr noundef nonnull readonly dereferenceable(1) %0) #9
  %.not30.i = icmp eq i64 %12, 0
  br i1 %.not30.i, label %.critedge.i.preheader, label %.lr.ph.i18

.lr.ph.i18:                                       ; preds = %11, %15
  %.02131.i = phi i64 [ %16, %15 ], [ %12, %11 ]
  %13 = getelementptr inbounds i8, ptr %0, i64 %.02131.i
  %14 = load i8, ptr %13, align 1
  %.not23.i = icmp eq i8 %14, 47
  br i1 %.not23.i, label %.critedge.i.preheader, label %15

15:                                               ; preds = %.lr.ph.i18
  %16 = add i64 %.02131.i, -1
  %.not.i19 = icmp eq i64 %16, 0
  br i1 %.not.i19, label %.critedge.i.preheader, label %.lr.ph.i18, !llvm.loop !10

.critedge.i.preheader:                            ; preds = %15, %.lr.ph.i18, %11
  %.1.i.ph = phi i64 [ 0, %11 ], [ 0, %15 ], [ %.02131.i, %.lr.ph.i18 ]
  br label %.critedge.i

.critedge.i:                                      ; preds = %.critedge.i.preheader, %.critedge2.i
  %.1.i = phi i64 [ %29, %.critedge2.i ], [ %.1.i.ph, %.critedge.i.preheader ]
  br label %17

17:                                               ; preds = %25, %.critedge.i
  %.034.i = phi ptr [ %9, %.critedge.i ], [ %27, %25 ]
  %18 = load ptr, ptr %.034.i, align 8
  %19 = tail call i32 @strncmp(ptr noundef %18, ptr noundef readonly %0, i64 noundef %.1.i) #9
  %20 = icmp eq i32 %19, 0
  br i1 %20, label %21, label %25

21:                                               ; preds = %17
  %22 = getelementptr inbounds i8, ptr %18, i64 %.1.i
  %23 = load i8, ptr %22, align 1
  %24 = icmp eq i8 %23, 0
  br i1 %24, label %_ZN14JavaAssertions13match_packageEPKc.exit, label %25

25:                                               ; preds = %21, %17
  %26 = getelementptr inbounds i8, ptr %.034.i, i64 8
  %27 = load ptr, ptr %26, align 8
  %.not24.i = icmp eq ptr %27, null
  br i1 %.not24.i, label %28, label %17, !llvm.loop !11

28:                                               ; preds = %25
  %.old3.not.i = icmp eq i64 %.1.i, 0
  br i1 %.old3.not.i, label %.loopexit, label %.preheader.i

.preheader.i:                                     ; preds = %28, %.preheader.i
  %.2.i = phi i64 [ %29, %.preheader.i ], [ %.1.i, %28 ]
  %29 = add i64 %.2.i, -1
  %30 = getelementptr inbounds i8, ptr %0, i64 %29
  %31 = load i8, ptr %30, align 1
  %32 = icmp ne i8 %31, 47
  %33 = icmp ne i64 %29, 0
  %or.cond.i = and i1 %32, %33
  br i1 %or.cond.i, label %.preheader.i, label %.critedge2.i, !llvm.loop !12

.critedge2.i:                                     ; preds = %.preheader.i
  %.not25.i = icmp eq i64 %29, 0
  br i1 %.not25.i, label %.loopexit, label %.critedge.i, !llvm.loop !13

_ZN14JavaAssertions13match_packageEPKc.exit:      ; preds = %21
  %34 = getelementptr inbounds i8, ptr %.034.i, i64 16
  br label %35

.loopexit:                                        ; preds = %.critedge2.i, %28, %.loopexit24
  %_ZN14JavaAssertions11_sysDefaultE._ZN14JavaAssertions12_userDefaultE = select i1 %1, ptr @_ZN14JavaAssertions11_sysDefaultE, ptr @_ZN14JavaAssertions12_userDefaultE
  br label %35

35:                                               ; preds = %.loopexit, %_ZN14JavaAssertions13match_packageEPKc.exit, %_ZN14JavaAssertions11match_classEPKc.exit
  %.0.in.in = phi ptr [ %8, %_ZN14JavaAssertions11match_classEPKc.exit ], [ %34, %_ZN14JavaAssertions13match_packageEPKc.exit ], [ %_ZN14JavaAssertions11_sysDefaultE._ZN14JavaAssertions12_userDefaultE, %.loopexit ]
  %.0.in = load i8, ptr %.0.in.in, align 1
  %.0 = trunc i8 %.0.in to i1
  ret i1 %.0
}